target datalayout = "e-m:e-p270:32:32-p271:32:32-p272:64:64-i64:64-i128:128-f80:128-n8:16:32:64-S128"
target triple = "x86_64-pc-linux-gnu"

%struct._generic_N_Vector = type { ptr, ptr, ptr }
%struct._N_VectorContent_SensWrapper = type { ptr, i32, i32 }

; Function Attrs: nounwind uwtable
define double @N_VMinQuotient_SensWrapper(ptr noundef %0, ptr noundef %1) #0 {
  %3 = alloca ptr, align 8
  %4 = alloca ptr, align 8
  %5 = alloca i32, align 4
  %6 = alloca double, align 8
  %7 = alloca double, align 8
  store ptr %0, ptr %3, align 8, !tbaa !10
  store ptr %1, ptr %4, align 8, !tbaa !10
  call void @llvm.lifetime.start.p0(i64 4, ptr %5) #5
  call void @llvm.lifetime.start.p0(i64 8, ptr %6) #5
  call void @llvm.lifetime.start.p0(i64 8, ptr %7) #5
  %8 = load ptr, ptr %3, align 8, !tbaa !10
  %9 = getelementptr inbounds nuw %struct._generic_N_Vector, ptr %8, i32 0, i32 0
  %10 = load ptr, ptr %9, align 8, !tbaa !45
  %11 = getelementptr inbounds nuw %struct._N_VectorContent_SensWrapper, ptr %10, i32 0, i32 0
  %12 = load ptr, ptr %11, align 8, !tbaa !44
  %13 = getelementptr inbounds ptr, ptr %12, i64 0
  %14 = load ptr, ptr %13, align 8, !tbaa !10
  %15 = load ptr, ptr %4, align 8, !tbaa !10
  %16 = getelementptr inbounds nuw %struct._generic_N_Vector, ptr %15, i32 0, i32 0
  %17 = load ptr, ptr %16, align 8, !tbaa !45
  %18 = getelementptr inbounds nuw %struct._N_VectorContent_SensWrapper, ptr %17, i32 0, i32 0
  %19 = load ptr, ptr %18, align 8, !tbaa !44
  %20 = getelementptr inbounds ptr, ptr %19, i64 0
  %21 = load ptr, ptr %20, align 8, !tbaa !10
  %22 = call double @N_VMinQuotient(ptr noundef %14, ptr noundef %21)
  store double %22, ptr %6, align 8, !tbaa !61
  store i32 1, ptr %5, align 4, !tbaa !3
  br label %23

23:                                               ; preds = %57, %2
  %24 = load i32, ptr %5, align 4, !tbaa !3
  %25 = load ptr, ptr %3, align 8, !tbaa !10
  %26 = getelementptr inbounds nuw %struct._generic_N_Vector, ptr %25, i32 0, i32 0
  %27 = load ptr, ptr %26, align 8, !tbaa !45
  %28 = getelementptr inbounds nuw %struct._N_VectorContent_SensWrapper, ptr %27, i32 0, i32 1
  %29 = load i32, ptr %28, align 8, !tbaa !40
  %30 = icmp slt i32 %24, %29
  br i1 %30, label %31, label %60

31:                                               ; preds = %23
  %32 = load ptr, ptr %3, align 8, !tbaa !10
  %33 = getelementptr inbounds nuw %struct._generic_N_Vector, ptr %32, i32 0, i32 0
  %34 = load ptr, ptr %33, align 8, !tbaa !45
  %35 = getelementptr inbounds nuw %struct._N_VectorContent_SensWrapper, ptr %34, i32 0, i32 0
  %36 = load ptr, ptr %35, align 8, !tbaa !44
  %37 = load i32, ptr %5, align 4, !tbaa !3
  %38 = sext i32 %37 to i64
  %39 = getelementptr inbounds ptr, ptr %36, i64 %38
  %40 = load ptr, ptr %39, align 8, !tbaa !10
  %41 = load ptr, ptr %4, align 8, !tbaa !10
  %42 = getelementptr inbounds nuw %struct._generic_N_Vector, ptr %41, i32 0, i32 0
  %43 = load ptr, ptr %42, align 8, !tbaa !45
  %44 = getelementptr inbounds nuw %struct._N_VectorContent_SensWrapper, ptr %43, i32 0, i32 0
  %45 = load ptr, ptr %44, align 8, !tbaa !44
  %46 = load i32, ptr %5, align 4, !tbaa !3
  %47 = sext i32 %46 to i64
  %48 = getelementptr inbounds ptr, ptr %45, i64 %47
  %49 = load ptr, ptr %48, align 8, !tbaa !10
  %50 = call double @N_VMinQuotient(ptr noundef %40, ptr noundef %49)
  store double %50, ptr %7, align 8, !tbaa !61
  %51 = load double, ptr %7, align 8, !tbaa !61
  %52 = load double, ptr %6, align 8, !tbaa !61
  %53 = fcmp olt double %51, %52
  br i1 %53, label %54, label %56

54:                                               ; preds = %31
  %55 = load double, ptr %7, align 8, !tbaa !61
  store double %55, ptr %6, align 8, !tbaa !61
  br label %56

56:                                               ; preds = %54, %31
  br label %57

57:                                               ; preds = %56
  %58 = load i32, ptr %5, align 4, !tbaa !3
  %59 = add nsw i32 %58, 1
  store i32 %59, ptr %5, align 4, !tbaa !3
  br label %23

60:                                               ; preds = %23
  %61 = load double, ptr %6, align 8, !tbaa !61
  call void @llvm.lifetime.end.p0(i64 8, ptr %7) #5
  call void @llvm.lifetime.end.p0(i64 8, ptr %6) #5
  call void @llvm.lifetime.end.p0(i64 4, ptr %5) #5
  ret double %61
}