; Function Attrs: nounwind uwtable
define double @N_VMinQuotient_SensWrapper(ptr noundef readonly captures(none) %0, ptr noundef readonly captures(none) %1) #0 {
  %3 = load ptr, ptr %0, align 8, !tbaa !39
  %4 = load ptr, ptr %3, align 8, !tbaa !38
  %5 = load ptr, ptr %4, align 8, !tbaa !40
  %6 = load ptr, ptr %1, align 8, !tbaa !39
  %7 = load ptr, ptr %6, align 8, !tbaa !38
  %8 = load ptr, ptr %7, align 8, !tbaa !40
  %9 = tail call double @N_VMinQuotient(ptr noundef %5, ptr noundef %8) #7
  %10 = load ptr, ptr %0, align 8, !tbaa !39
  %11 = getelementptr inbounds nuw i8, ptr %10, i64 8
  %12 = load i32, ptr %11, align 8, !tbaa !33
  %13 = icmp sgt i32 %12, 1
  br i1 %13, label %.lr.ph, label %._crit_edge

.lr.ph:                                           ; preds = %2, %.lr.ph
  %indvars.iv = phi i64 [ %indvars.iv.next, %.lr.ph ], [ 1, %2 ]
  %14 = phi ptr [ %24, %.lr.ph ], [ %10, %2 ]
  %.01214 = phi double [ %.1, %.lr.ph ], [ %9, %2 ]
  %15 = load ptr, ptr %14, align 8, !tbaa !38
  %16 = getelementptr inbounds nuw ptr, ptr %15, i64 %indvars.iv
  %17 = load ptr, ptr %16, align 8, !tbaa !40
  %18 = load ptr, ptr %1, align 8, !tbaa !39
  %19 = load ptr, ptr %18, align 8, !tbaa !38
  %20 = getelementptr inbounds nuw ptr, ptr %19, i64 %indvars.iv
  %21 = load ptr, ptr %20, align 8, !tbaa !40
  %22 = tail call double @N_VMinQuotient(ptr noundef %17, ptr noundef %21) #7
  %23 = fcmp olt double %22, %.01214
  %.1 = select i1 %23, double %22, double %.01214
  %indvars.iv.next = add nuw nsw i64 %indvars.iv, 1
  %24 = load ptr, ptr %0, align 8, !tbaa !39
  %25 = getelementptr inbounds nuw i8, ptr %24, i64 8
  %26 = load i32, ptr %25, align 8, !tbaa !33
  %27 = sext i32 %26 to i64
  %28 = icmp slt i64 %indvars.iv.next, %27
  br i1 %28, label %.lr.ph, label %._crit_edge

._crit_edge:                                      ; preds = %.lr.ph, %2
  %.012.lcssa = phi double [ %9, %2 ], [ %.1, %.lr.ph ]
  ret double %.012.lcssa
}